; Function Attrs: nounwind uwtable
define dso_local range(i32 -1, 1) i32 @getFlushCommandFlags(ptr noundef %0, ptr noundef writeonly captures(none) %1) local_unnamed_addr #0 {
  %3 = getelementptr inbounds nuw i8, ptr %0, i64 88
  %4 = load i32, ptr %3, align 8, !tbaa !103
  switch i32 %4, label %.thread11 [
    i32 2, label %5
    i32 1, label %17
  ]

5:                                                ; preds = %2
  %6 = getelementptr inbounds nuw i8, ptr %0, i64 96
  %7 = load ptr, ptr %6, align 8, !tbaa !104
  %8 = getelementptr inbounds nuw i8, ptr %7, i64 8
  %9 = load ptr, ptr %8, align 8, !tbaa !105
  %10 = getelementptr inbounds nuw i8, ptr %9, i64 8
  %11 = load ptr, ptr %10, align 8, !tbaa !18
  %12 = tail call i32 @strcasecmp(ptr noundef %11, ptr noundef nonnull @.str.5) #24
  %.not = icmp eq i32 %12, 0
  br i1 %.not, label %13, label %14

13:                                               ; preds = %5
  store i32 0, ptr %1, align 4, !tbaa !79
  br label %21

14:                                               ; preds = %5
  %15 = tail call i32 @strcasecmp(ptr noundef %11, ptr noundef nonnull @.str.6) #24
  %.not9 = icmp eq i32 %15, 0
  br i1 %.not9, label %16, label %.thread11

16:                                               ; preds = %14
  store i32 1, ptr %1, align 4, !tbaa !79
  br label %21

17:                                               ; preds = %2
  %18 = load i32, ptr getelementptr inbounds nuw (i8, ptr @server, i64 8056), align 8, !tbaa !106
  %.not10 = icmp ne i32 %18, 0
  %19 = zext i1 %.not10 to i32
  store i32 %19, ptr %1, align 4, !tbaa !79
  br label %21

.thread11:                                        ; preds = %2, %14
  %20 = load ptr, ptr getelementptr inbounds nuw (i8, ptr @shared, i64 216), align 8, !tbaa !107
  tail call void @addReplyErrorObject(ptr noundef nonnull %0, ptr noundef %20) #20
  br label %21

21:                                               ; preds = %13, %17, %16, %.thread11
  %.0 = phi i32 [ -1, %.thread11 ], [ 0, %16 ], [ 0, %17 ], [ 0, %13 ]
  ret i32 %.0
}